; Function Attrs: mustprogress nofree norecurse nosync nounwind willreturn memory(none) uwtable
define noundef nonnull ptr @_ZN4LIEF2PE9to_stringENS0_3FPO10FRAME_TYPEE(i32 noundef %0) local_unnamed_addr #3 {
  %2 = icmp ult i32 %0, 4
  br i1 %2, label %switch.lookup, label %4

switch.lookup:                                    ; preds = %1
  %3 = zext nneg i32 %0 to i64
  %switch.gep = getelementptr inbounds nuw [4 x ptr], ptr @switch.table._ZN4LIEF2PE9to_stringENS0_3FPO10FRAME_TYPEE, i64 0, i64 %3
  %switch.load = load ptr, ptr %switch.gep, align 8
  br label %4

4:                                                ; preds = %switch.lookup, %1
  %.0 = phi ptr [ @.str.12, %1 ], [ %switch.load, %switch.lookup ]
  ret ptr %.0
}